target datalayout = "e-m:e-p270:32:32-p271:32:32-p272:64:64-i64:64-i128:128-f80:128-n8:16:32:64-S128"
target triple = "x86_64-pc-linux-gnu"

@useReadline = internal global i8 0, align 1
@tab_completion_query_buf = external global ptr, align 8
@sigint_interrupt_enabled = external global i32, align 4
@stdout = external global ptr, align 8
@stdin = external global ptr, align 8

; Function Attrs: nounwind uwtable
define dso_local ptr @gets_interactive(ptr noundef %0, ptr noundef %1) #0 {
  %3 = alloca ptr, align 8
  %4 = alloca ptr, align 8
  %5 = alloca ptr, align 8
  %6 = alloca ptr, align 8
  store ptr %0, ptr %4, align 8
  store ptr %1, ptr %5, align 8
  %7 = load i8, ptr @useReadline, align 1, !range !4, !noundef !5
  %8 = trunc i8 %7 to i1
  br i1 %8, label %9, label %14

9:                                                ; preds = %2
  call void @llvm.lifetime.start.p0(i64 8, ptr %6) #5
  call void @rl_reset_screen_size()
  %10 = load ptr, ptr %5, align 8
  store ptr %10, ptr @tab_completion_query_buf, align 8
  store volatile i32 1, ptr @sigint_interrupt_enabled, align 4
  %11 = load ptr, ptr %4, align 8
  %12 = call ptr @readline(ptr noundef %11)
  store ptr %12, ptr %6, align 8
  store volatile i32 0, ptr @sigint_interrupt_enabled, align 4
  store ptr null, ptr @tab_completion_query_buf, align 8
  %13 = load ptr, ptr %6, align 8
  store ptr %13, ptr %3, align 8
  call void @llvm.lifetime.end.p0(i64 8, ptr %6) #5
  br label %22

14:                                               ; preds = %2
  %15 = load ptr, ptr %4, align 8
  %16 = load ptr, ptr @stdout, align 8
  %17 = call i32 @fputs(ptr noundef %15, ptr noundef %16)
  %18 = load ptr, ptr @stdout, align 8
  %19 = call i32 @fflush(ptr noundef %18)
  %20 = load ptr, ptr @stdin, align 8
  %21 = call ptr @gets_fromFile(ptr noundef %20)
  store ptr %21, ptr %3, align 8
  br label %22

22:                                               ; preds = %14, %9
  %23 = load ptr, ptr %3, align 8
  ret ptr %23
}