; Function Attrs: nounwind uwtable
define dso_local ptr @gets_interactive(ptr noundef %0, ptr noundef %1) local_unnamed_addr #0 {
  %.b5 = load i1, ptr @useReadline, align 1
  br i1 %.b5, label %3, label %5

3:                                                ; preds = %2
  tail call void @rl_reset_screen_size() #9
  store ptr %1, ptr @tab_completion_query_buf, align 8
  store volatile i32 1, ptr @sigint_interrupt_enabled, align 4
  %4 = tail call ptr @readline(ptr noundef %0) #9
  store volatile i32 0, ptr @sigint_interrupt_enabled, align 4
  store ptr null, ptr @tab_completion_query_buf, align 8
  br label %12

5:                                                ; preds = %2
  %6 = load ptr, ptr @stdout, align 8
  %7 = tail call i32 @fputs(ptr noundef %0, ptr noundef %6)
  %8 = load ptr, ptr @stdout, align 8
  %9 = tail call i32 @fflush(ptr noundef %8)
  %10 = load ptr, ptr @stdin, align 8
  %11 = tail call ptr @gets_fromFile(ptr noundef %10)
  br label %12

12:                                               ; preds = %5, %3
  %.0 = phi ptr [ %4, %3 ], [ %11, %5 ]
  ret ptr %.0
}